target datalayout = "e-m:e-p270:32:32-p271:32:32-p272:64:64-i64:64-i128:128-f80:128-n8:16:32:64-S128"
target triple = "x86_64-pc-linux-gnu"

%struct.darktable_t = type { %struct.dt_codepath_t, i32, i32, ptr, ptr, ptr, ptr, ptr, ptr, ptr, ptr, ptr, ptr, ptr, ptr, ptr, ptr, ptr, ptr, ptr, ptr, ptr, ptr, ptr, ptr, ptr, ptr, ptr, ptr, ptr, [64 x %struct.dt_pthread_mutex_t], %struct.dt_pthread_mutex_t, %struct.dt_pthread_mutex_t, %struct.dt_pthread_mutex_t, %struct.dt_pthread_mutex_t, %struct.dt_pthread_mutex_t, ptr, ptr, ptr, ptr, ptr, ptr, ptr, ptr, ptr, ptr, ptr, ptr, ptr, %struct.dt_lua_state_t, ptr, double, ptr, i32, [47 x i32], i32, i32, ptr, ptr, %struct.dt_sys_resources_t, %struct.dt_backthumb_t, %struct.dt_gimp_t }
%struct.dt_codepath_t = type { i8, [3 x i8] }
%struct.dt_pthread_mutex_t = type { %union.pthread_mutex_t }
%union.pthread_mutex_t = type { %struct.__pthread_mutex_s }
%struct.__pthread_mutex_s = type { i32, i32, i32, i32, i32, i16, i16, %struct.__pthread_internal_list }
%struct.__pthread_internal_list = type { ptr, ptr }
%struct.dt_lua_state_t = type { i32 }
%struct.dt_sys_resources_t = type { i64, i64, ptr, ptr, i32 }
%struct.dt_backthumb_t = type { double, double, i32, i32, i32, i32 }
%struct.dt_gimp_t = type { i32, ptr, ptr, i32, i32 }

@darktable = external global %struct.darktable_t, align 8

; Function Attrs: nounwind uwtable
define i32 @dt_tag_detach_images(i32 noundef %0, ptr noundef %1, i32 noundef %2) #0 {
  %4 = alloca i32, align 4
  %5 = alloca i32, align 4
  %6 = alloca ptr, align 8
  %7 = alloca i32, align 4
  %8 = alloca ptr, align 8
  %9 = alloca ptr, align 8
  %10 = alloca i32, align 4
  store i32 %0, ptr %5, align 4, !tbaa !52
  store ptr %1, ptr %6, align 8, !tbaa !59
  store i32 %2, ptr %7, align 4, !tbaa !52
  %11 = load ptr, ptr %6, align 8, !tbaa !59
  %12 = icmp ne ptr %11, null
  br i1 %12, label %13, label %37

13:                                               ; preds = %3
  call void @llvm.lifetime.start.p0(i64 8, ptr %8) #8
  store ptr null, ptr %8, align 8, !tbaa !59
  %14 = load ptr, ptr %8, align 8, !tbaa !59
  %15 = load i32, ptr %5, align 4, !tbaa !52
  %16 = zext i32 %15 to i64
  %17 = inttoptr i64 %16 to ptr
  %18 = call ptr @g_list_prepend(ptr noundef %14, ptr noundef %17)
  store ptr %18, ptr %8, align 8, !tbaa !59
  call void @llvm.lifetime.start.p0(i64 8, ptr %9) #8
  store ptr null, ptr %9, align 8, !tbaa !59
  %19 = load i32, ptr %7, align 4, !tbaa !52
  %20 = icmp ne i32 %19, 0
  br i1 %20, label %21, label %23

21:                                               ; preds = %13
  %22 = load ptr, ptr getelementptr inbounds nuw (%struct.darktable_t, ptr @darktable, i32 0, i32 27), align 8, !tbaa !65
  call void @dt_undo_start_group(ptr noundef %22, i32 noundef 32)
  br label %23

23:                                               ; preds = %21, %13
  call void @llvm.lifetime.start.p0(i64 4, ptr %10) #8
  %24 = load ptr, ptr %8, align 8, !tbaa !59
  %25 = load ptr, ptr %6, align 8, !tbaa !59
  %26 = load i32, ptr %7, align 4, !tbaa !52
  %27 = call i32 @_tag_execute(ptr noundef %24, ptr noundef %25, ptr noundef %9, i32 noundef %26, i32 noundef 1)
  store i32 %27, ptr %10, align 4, !tbaa !52
  %28 = load ptr, ptr %8, align 8, !tbaa !59
  call void @g_list_free(ptr noundef %28)
  %29 = load i32, ptr %7, align 4, !tbaa !52
  %30 = icmp ne i32 %29, 0
  br i1 %30, label %31, label %35

31:                                               ; preds = %23
  %32 = load ptr, ptr getelementptr inbounds nuw (%struct.darktable_t, ptr @darktable, i32 0, i32 27), align 8, !tbaa !65
  %33 = load ptr, ptr %9, align 8, !tbaa !59
  call void @dt_undo_record(ptr noundef %32, ptr noundef null, i32 noundef 32, ptr noundef %33, ptr noundef @_pop_undo, ptr noundef @_tags_undo_data_free)
  %34 = load ptr, ptr getelementptr inbounds nuw (%struct.darktable_t, ptr @darktable, i32 0, i32 27), align 8, !tbaa !65
  call void @dt_undo_end_group(ptr noundef %34)
  br label %35

35:                                               ; preds = %31, %23
  %36 = load i32, ptr %10, align 4, !tbaa !52
  store i32 %36, ptr %4, align 4
  call void @llvm.lifetime.end.p0(i64 4, ptr %10) #8
  call void @llvm.lifetime.end.p0(i64 8, ptr %9) #8
  call void @llvm.lifetime.end.p0(i64 8, ptr %8) #8
  br label %38

37:                                               ; preds = %3
  store i32 0, ptr %4, align 4
  br label %38

38:                                               ; preds = %37, %35
  %39 = load i32, ptr %4, align 4
  ret i32 %39
}