; Function Attrs: nounwind uwtable
define range(i32 0, 2) i32 @dt_tag_detach_images(i32 noundef %0, ptr noundef readonly %1, i32 noundef %2) local_unnamed_addr #0 {
  %4 = alloca ptr, align 8
  %.not = icmp eq ptr %1, null
  br i1 %.not, label %17, label %5

5:                                                ; preds = %3
  %6 = zext i32 %0 to i64
  %7 = inttoptr i64 %6 to ptr
  %8 = tail call ptr @g_list_prepend(ptr noundef null, ptr noundef %7) #11
  call void @llvm.lifetime.start.p0(i64 8, ptr nonnull %4) #11
  store ptr null, ptr %4, align 8, !tbaa !63
  %.not14 = icmp eq i32 %2, 0
  br i1 %.not14, label %.thread, label %10

.thread:                                          ; preds = %5
  %9 = call fastcc i32 @_tag_execute(ptr noundef %8, ptr noundef %1, ptr noundef %4, i32 noundef 0, i32 noundef 1)
  tail call void @g_list_free(ptr noundef %8) #11
  br label %16

10:                                               ; preds = %5
  %11 = load ptr, ptr getelementptr inbounds nuw (i8, ptr @darktable, i64 208), align 8, !tbaa !64
  tail call void @dt_undo_start_group(ptr noundef %11, i32 noundef 32) #11
  %12 = call fastcc i32 @_tag_execute(ptr noundef %8, ptr noundef %1, ptr noundef %4, i32 noundef %2, i32 noundef 1)
  tail call void @g_list_free(ptr noundef %8) #11
  %13 = load ptr, ptr getelementptr inbounds nuw (i8, ptr @darktable, i64 208), align 8, !tbaa !64
  %14 = load ptr, ptr %4, align 8, !tbaa !63
  tail call void @dt_undo_record(ptr noundef %13, ptr noundef null, i32 noundef 32, ptr noundef %14, ptr noundef nonnull @_pop_undo, ptr noundef nonnull @_tags_undo_data_free) #11
  %15 = load ptr, ptr getelementptr inbounds nuw (i8, ptr @darktable, i64 208), align 8, !tbaa !64
  tail call void @dt_undo_end_group(ptr noundef %15) #11
  br label %16

16:                                               ; preds = %.thread, %10
  %phi.call16 = phi i32 [ %9, %.thread ], [ %12, %10 ]
  call void @llvm.lifetime.end.p0(i64 8, ptr nonnull %4) #11
  br label %17

17:                                               ; preds = %3, %16
  %.0 = phi i32 [ %phi.call16, %16 ], [ 0, %3 ]
  ret i32 %.0
}